; Function Attrs: nounwind sspstrong uwtable
define internal noundef i32 @gdb_monitor_write(ptr readnone captures(none) %0, ptr noundef %1, i32 noundef returned %2) #2 {
glib_autoptr_cleanup_GString.exit:
  %3 = tail call ptr @g_string_new(ptr noundef nonnull @.str.47) #16
  tail call void @gdb_memtohex(ptr noundef %3, ptr noundef %1, i32 noundef %2) #16
  %4 = load ptr, ptr %3, align 8
  %5 = tail call i32 @gdb_put_packet(ptr noundef %4) #16
  %6 = tail call ptr @g_string_free(ptr noundef nonnull %3, i32 noundef 1) #16
  ret i32 %2
}